	.text
	.attribute	4, 16
	.attribute	5, "rv32i2p1_m2p0_a2p1_c2p0_zicsr2p0"
	.file	"ISR.c"
	.file	1 "/home/simon/Programming/cs_econ/bachelor/src/bare_metal" "interrupt/ISR.c"
	.globl	set_interrupt_timer             # -- Begin function set_interrupt_timer
	.p2align	1
	.type	set_interrupt_timer,@function
set_interrupt_timer:                    # @set_interrupt_timer
.Lfunc_begin0:
	.loc	1 5 0                           # interrupt/ISR.c:5:0
	.cfi_sections .debug_frame
	.cfi_startproc
# %bb.0:
	addi	sp, sp, -16
	.cfi_def_cfa_offset 16
	sw	ra, 12(sp)                      # 4-byte Folded Spill
	sw	s0, 8(sp)                       # 4-byte Folded Spill
	.cfi_offset ra, -4
	.cfi_offset s0, -8
	addi	s0, sp, 16
	.cfi_def_cfa s0, 0
.Ltmp0:
	.loc	1 6 3 prologue_end              # interrupt/ISR.c:6:3
	#APP
	rdtime	t0
	lui	t1, 244
	addi	t1, t1, 576
	add	t2, t0, t1
	lui	t0, 8196
	sw	t2, 0(t0)
	#NO_APP
	lw	ra, 12(sp)                      # 4-byte Folded Reload
	lw	s0, 8(sp)                       # 4-byte Folded Reload
	.loc	1 14 1 epilogue_begin           # interrupt/ISR.c:14:1
	addi	sp, sp, 16
	ret
.Ltmp1:
.Lfunc_end0:
	.size	set_interrupt_timer, .Lfunc_end0-set_interrupt_timer
	.cfi_endproc
                                        # -- End function
	.globl	riscv_interrupt_handler         # -- Begin function riscv_interrupt_handler
	.p2align	1
	.type	riscv_interrupt_handler,@function
riscv_interrupt_handler:                # @riscv_interrupt_handler
.Lfunc_begin1:
	.loc	1 16 0                          # interrupt/ISR.c:16:0
	.cfi_startproc
# %bb.0:
	addi	sp, sp, -80
	.cfi_def_cfa_offset 80
	sw	ra, 76(sp)                      # 4-byte Folded Spill
	sw	t0, 72(sp)                      # 4-byte Folded Spill
	sw	t1, 68(sp)                      # 4-byte Folded Spill
	sw	t2, 64(sp)                      # 4-byte Folded Spill
	sw	s0, 60(sp)                      # 4-byte Folded Spill
	sw	a0, 56(sp)                      # 4-byte Folded Spill
	sw	a1, 52(sp)                      # 4-byte Folded Spill
	sw	a2, 48(sp)                      # 4-byte Folded Spill
	sw	a3, 44(sp)                      # 4-byte Folded Spill
	sw	a4, 40(sp)                      # 4-byte Folded Spill
	sw	a5, 36(sp)                      # 4-byte Folded Spill
	sw	a6, 32(sp)                      # 4-byte Folded Spill
	sw	a7, 28(sp)                      # 4-byte Folded Spill
	sw	t3, 24(sp)                      # 4-byte Folded Spill
	sw	t4, 20(sp)                      # 4-byte Folded Spill
	sw	t5, 16(sp)                      # 4-byte Folded Spill
	sw	t6, 12(sp)                      # 4-byte Folded Spill
	.cfi_offset ra, -4
	.cfi_offset t0, -8
	.cfi_offset t1, -12
	.cfi_offset t2, -16
	.cfi_offset s0, -20
	.cfi_offset a0, -24
	.cfi_offset a1, -28
	.cfi_offset a2, -32
	.cfi_offset a3, -36
	.cfi_offset a4, -40
	.cfi_offset a5, -44
	.cfi_offset a6, -48
	.cfi_offset a7, -52
	.cfi_offset t3, -56
	.cfi_offset t4, -60
	.cfi_offset t5, -64
	.cfi_offset t6, -68
	addi	s0, sp, 80
	.cfi_def_cfa s0, 0
.Ltmp2:
	.loc	1 17 3 prologue_end             # interrupt/ISR.c:17:3
	lui	a0, %hi(.L.str)
	addi	a0, a0, %lo(.L.str)
	call	printf
	.loc	1 18 3                          # interrupt/ISR.c:18:3
	call	set_interrupt_timer
	lw	ra, 76(sp)                      # 4-byte Folded Reload
	lw	t0, 72(sp)                      # 4-byte Folded Reload
	lw	t1, 68(sp)                      # 4-byte Folded Reload
	lw	t2, 64(sp)                      # 4-byte Folded Reload
	lw	s0, 60(sp)                      # 4-byte Folded Reload
	lw	a0, 56(sp)                      # 4-byte Folded Reload
	lw	a1, 52(sp)                      # 4-byte Folded Reload
	lw	a2, 48(sp)                      # 4-byte Folded Reload
	lw	a3, 44(sp)                      # 4-byte Folded Reload
	lw	a4, 40(sp)                      # 4-byte Folded Reload
	lw	a5, 36(sp)                      # 4-byte Folded Reload
	lw	a6, 32(sp)                      # 4-byte Folded Reload
	lw	a7, 28(sp)                      # 4-byte Folded Reload
	lw	t3, 24(sp)                      # 4-byte Folded Reload
	lw	t4, 20(sp)                      # 4-byte Folded Reload
	lw	t5, 16(sp)                      # 4-byte Folded Reload
	lw	t6, 12(sp)                      # 4-byte Folded Reload
	.loc	1 19 1 epilogue_begin           # interrupt/ISR.c:19:1
	addi	sp, sp, 80
	mret
.Ltmp3:
.Lfunc_end1:
	.size	riscv_interrupt_handler, .Lfunc_end1-riscv_interrupt_handler
	.cfi_endproc
                                        # -- End function
	.type	.L.str,@object                  # @.str
	.section	.rodata.str1.1,"aMS",@progbits,1
.L.str:
	.asciz	"Hello from interrupt handler\n"
	.size	.L.str, 30

	.section	".note.GNU-stack","",@progbits
	.addrsig
	.addrsig_sym set_interrupt_timer
	.addrsig_sym printf